target datalayout = "e-m:e-p270:32:32-p271:32:32-p272:64:64-i64:64-i128:128-f80:128-n8:16:32:64-S128"
target triple = "x86_64-pc-linux-gnu"

; Function Attrs: nounwind uwtable
define internal void @draw_idots16(ptr noundef %0, i32 noundef %1, i32 noundef %2, float noundef %3) #1 {
  %5 = alloca ptr, align 8
  %6 = alloca i32, align 4
  %7 = alloca i32, align 4
  %8 = alloca float, align 4
  %9 = alloca float, align 4
  %10 = alloca i32, align 4
  store ptr %0, ptr %5, align 8, !tbaa !125
  store i32 %1, ptr %6, align 4, !tbaa !47
  store i32 %2, ptr %7, align 4, !tbaa !47
  store float %3, ptr %8, align 4, !tbaa !67
  call void @llvm.lifetime.start.p0(i64 4, ptr %9) #11
  %11 = load float, ptr %8, align 4, !tbaa !67
  %12 = fpext nsz float %11 to double
  %13 = fsub nsz double 1.000000e+00, %12
  %14 = fptrunc nsz double %13 to float
  store float %14, ptr %9, align 4, !tbaa !67
  call void @llvm.lifetime.start.p0(i64 4, ptr %10) #11
  %15 = load i32, ptr %6, align 4, !tbaa !47
  %16 = mul nsw i32 %15, 2
  store i32 %16, ptr %10, align 4, !tbaa !47
  %17 = load ptr, ptr %5, align 8, !tbaa !125
  %18 = load i32, ptr %10, align 4, !tbaa !47
  %19 = sub nsw i32 %18, 3
  %20 = sext i32 %19 to i64
  %21 = getelementptr inbounds i16, ptr %17, i64 %20
  %22 = load i16, ptr %21, align 2, !tbaa !65
  %23 = zext i16 %22 to i32
  %24 = sitofp i32 %23 to float
  %25 = load float, ptr %9, align 4, !tbaa !67
  %26 = load i32, ptr %7, align 4, !tbaa !47
  %27 = load ptr, ptr %5, align 8, !tbaa !125
  %28 = load i32, ptr %10, align 4, !tbaa !47
  %29 = sub nsw i32 %28, 3
  %30 = sext i32 %29 to i64
  %31 = getelementptr inbounds i16, ptr %27, i64 %30
  %32 = load i16, ptr %31, align 2, !tbaa !65
  %33 = zext i16 %32 to i32
  %34 = sub nsw i32 %26, %33
  %35 = sitofp i32 %34 to float
  %36 = load float, ptr %8, align 4, !tbaa !67
  %37 = fmul nsz float %35, %36
  %38 = call nsz float @llvm.fmuladd.f32(float %24, float %25, float %37)
  %39 = fptoui float %38 to i16
  %40 = load ptr, ptr %5, align 8, !tbaa !125
  %41 = load i32, ptr %10, align 4, !tbaa !47
  %42 = sub nsw i32 %41, 3
  %43 = sext i32 %42 to i64
  %44 = getelementptr inbounds i16, ptr %40, i64 %43
  store i16 %39, ptr %44, align 2, !tbaa !65
  %45 = load ptr, ptr %5, align 8, !tbaa !125
  %46 = load i32, ptr %10, align 4, !tbaa !47
  %47 = add nsw i32 %46, 3
  %48 = sext i32 %47 to i64
  %49 = getelementptr inbounds i16, ptr %45, i64 %48
  %50 = load i16, ptr %49, align 2, !tbaa !65
  %51 = zext i16 %50 to i32
  %52 = sitofp i32 %51 to float
  %53 = load float, ptr %9, align 4, !tbaa !67
  %54 = load i32, ptr %7, align 4, !tbaa !47
  %55 = load ptr, ptr %5, align 8, !tbaa !125
  %56 = load i32, ptr %10, align 4, !tbaa !47
  %57 = add nsw i32 %56, 3
  %58 = sext i32 %57 to i64
  %59 = getelementptr inbounds i16, ptr %55, i64 %58
  %60 = load i16, ptr %59, align 2, !tbaa !65
  %61 = zext i16 %60 to i32
  %62 = sub nsw i32 %54, %61
  %63 = sitofp i32 %62 to float
  %64 = load float, ptr %8, align 4, !tbaa !67
  %65 = fmul nsz float %63, %64
  %66 = call nsz float @llvm.fmuladd.f32(float %52, float %53, float %65)
  %67 = fptoui float %66 to i16
  %68 = load ptr, ptr %5, align 8, !tbaa !125
  %69 = load i32, ptr %10, align 4, !tbaa !47
  %70 = add nsw i32 %69, 3
  %71 = sext i32 %70 to i64
  %72 = getelementptr inbounds i16, ptr %68, i64 %71
  store i16 %67, ptr %72, align 2, !tbaa !65
  %73 = load ptr, ptr %5, align 8, !tbaa !125
  %74 = load i32, ptr %10, align 4, !tbaa !47
  %75 = sub nsw i32 0, %74
  %76 = sub nsw i32 %75, 3
  %77 = sext i32 %76 to i64
  %78 = getelementptr inbounds i16, ptr %73, i64 %77
  %79 = load i16, ptr %78, align 2, !tbaa !65
  %80 = zext i16 %79 to i32
  %81 = sitofp i32 %80 to float
  %82 = load float, ptr %9, align 4, !tbaa !67
  %83 = load i32, ptr %7, align 4, !tbaa !47
  %84 = load ptr, ptr %5, align 8, !tbaa !125
  %85 = load i32, ptr %10, align 4, !tbaa !47
  %86 = sub nsw i32 0, %85
  %87 = sub nsw i32 %86, 3
  %88 = sext i32 %87 to i64
  %89 = getelementptr inbounds i16, ptr %84, i64 %88
  %90 = load i16, ptr %89, align 2, !tbaa !65
  %91 = zext i16 %90 to i32
  %92 = sub nsw i32 %83, %91
  %93 = sitofp i32 %92 to float
  %94 = load float, ptr %8, align 4, !tbaa !67
  %95 = fmul nsz float %93, %94
  %96 = call nsz float @llvm.fmuladd.f32(float %81, float %82, float %95)
  %97 = fptoui float %96 to i16
  %98 = load ptr, ptr %5, align 8, !tbaa !125
  %99 = load i32, ptr %10, align 4, !tbaa !47
  %100 = sub nsw i32 0, %99
  %101 = sub nsw i32 %100, 3
  %102 = sext i32 %101 to i64
  %103 = getelementptr inbounds i16, ptr %98, i64 %102
  store i16 %97, ptr %103, align 2, !tbaa !65
  %104 = load ptr, ptr %5, align 8, !tbaa !125
  %105 = load i32, ptr %10, align 4, !tbaa !47
  %106 = sub nsw i32 0, %105
  %107 = add nsw i32 %106, 3
  %108 = sext i32 %107 to i64
  %109 = getelementptr inbounds i16, ptr %104, i64 %108
  %110 = load i16, ptr %109, align 2, !tbaa !65
  %111 = zext i16 %110 to i32
  %112 = sitofp i32 %111 to float
  %113 = load float, ptr %9, align 4, !tbaa !67
  %114 = load i32, ptr %7, align 4, !tbaa !47
  %115 = load ptr, ptr %5, align 8, !tbaa !125
  %116 = load i32, ptr %10, align 4, !tbaa !47
  %117 = sub nsw i32 0, %116
  %118 = add nsw i32 %117, 3
  %119 = sext i32 %118 to i64
  %120 = getelementptr inbounds i16, ptr %115, i64 %119
  %121 = load i16, ptr %120, align 2, !tbaa !65
  %122 = zext i16 %121 to i32
  %123 = sub nsw i32 %114, %122
  %124 = sitofp i32 %123 to float
  %125 = load float, ptr %8, align 4, !tbaa !67
  %126 = fmul nsz float %124, %125
  %127 = call nsz float @llvm.fmuladd.f32(float %112, float %113, float %126)
  %128 = fptoui float %127 to i16
  %129 = load ptr, ptr %5, align 8, !tbaa !125
  %130 = load i32, ptr %10, align 4, !tbaa !47
  %131 = sub nsw i32 0, %130
  %132 = add nsw i32 %131, 3
  %133 = sext i32 %132 to i64
  %134 = getelementptr inbounds i16, ptr %129, i64 %133
  store i16 %128, ptr %134, align 2, !tbaa !65
  %135 = load i32, ptr %6, align 4, !tbaa !47
  %136 = load i32, ptr %10, align 4, !tbaa !47
  %137 = add nsw i32 %136, %135
  store i32 %137, ptr %10, align 4, !tbaa !47
  %138 = load ptr, ptr %5, align 8, !tbaa !125
  %139 = load i32, ptr %10, align 4, !tbaa !47
  %140 = sub nsw i32 %139, 3
  %141 = sext i32 %140 to i64
  %142 = getelementptr inbounds i16, ptr %138, i64 %141
  %143 = load i16, ptr %142, align 2, !tbaa !65
  %144 = zext i16 %143 to i32
  %145 = sitofp i32 %144 to float
  %146 = load float, ptr %9, align 4, !tbaa !67
  %147 = load i32, ptr %7, align 4, !tbaa !47
  %148 = load ptr, ptr %5, align 8, !tbaa !125
  %149 = load i32, ptr %10, align 4, !tbaa !47
  %150 = sub nsw i32 %149, 3
  %151 = sext i32 %150 to i64
  %152 = getelementptr inbounds i16, ptr %148, i64 %151
  %153 = load i16, ptr %152, align 2, !tbaa !65
  %154 = zext i16 %153 to i32
  %155 = sub nsw i32 %147, %154
  %156 = sitofp i32 %155 to float
  %157 = load float, ptr %8, align 4, !tbaa !67
  %158 = fmul nsz float %156, %157
  %159 = call nsz float @llvm.fmuladd.f32(float %145, float %146, float %158)
  %160 = fptoui float %159 to i16
  %161 = load ptr, ptr %5, align 8, !tbaa !125
  %162 = load i32, ptr %10, align 4, !tbaa !47
  %163 = sub nsw i32 %162, 3
  %164 = sext i32 %163 to i64
  %165 = getelementptr inbounds i16, ptr %161, i64 %164
  store i16 %160, ptr %165, align 2, !tbaa !65
  %166 = load ptr, ptr %5, align 8, !tbaa !125
  %167 = load i32, ptr %10, align 4, !tbaa !47
  %168 = add nsw i32 %167, 3
  %169 = sext i32 %168 to i64
  %170 = getelementptr inbounds i16, ptr %166, i64 %169
  %171 = load i16, ptr %170, align 2, !tbaa !65
  %172 = zext i16 %171 to i32
  %173 = sitofp i32 %172 to float
  %174 = load float, ptr %9, align 4, !tbaa !67
  %175 = load i32, ptr %7, align 4, !tbaa !47
  %176 = load ptr, ptr %5, align 8, !tbaa !125
  %177 = load i32, ptr %10, align 4, !tbaa !47
  %178 = add nsw i32 %177, 3
  %179 = sext i32 %178 to i64
  %180 = getelementptr inbounds i16, ptr %176, i64 %179
  %181 = load i16, ptr %180, align 2, !tbaa !65
  %182 = zext i16 %181 to i32
  %183 = sub nsw i32 %175, %182
  %184 = sitofp i32 %183 to float
  %185 = load float, ptr %8, align 4, !tbaa !67
  %186 = fmul nsz float %184, %185
  %187 = call nsz float @llvm.fmuladd.f32(float %173, float %174, float %186)
  %188 = fptoui float %187 to i16
  %189 = load ptr, ptr %5, align 8, !tbaa !125
  %190 = load i32, ptr %10, align 4, !tbaa !47
  %191 = add nsw i32 %190, 3
  %192 = sext i32 %191 to i64
  %193 = getelementptr inbounds i16, ptr %189, i64 %192
  store i16 %188, ptr %193, align 2, !tbaa !65
  %194 = load ptr, ptr %5, align 8, !tbaa !125
  %195 = load i32, ptr %10, align 4, !tbaa !47
  %196 = sub nsw i32 %195, 2
  %197 = sext i32 %196 to i64
  %198 = getelementptr inbounds i16, ptr %194, i64 %197
  %199 = load i16, ptr %198, align 2, !tbaa !65
  %200 = zext i16 %199 to i32
  %201 = sitofp i32 %200 to float
  %202 = load float, ptr %9, align 4, !tbaa !67
  %203 = load i32, ptr %7, align 4, !tbaa !47
  %204 = load ptr, ptr %5, align 8, !tbaa !125
  %205 = load i32, ptr %10, align 4, !tbaa !47
  %206 = sub nsw i32 %205, 2
  %207 = sext i32 %206 to i64
  %208 = getelementptr inbounds i16, ptr %204, i64 %207
  %209 = load i16, ptr %208, align 2, !tbaa !65
  %210 = zext i16 %209 to i32
  %211 = sub nsw i32 %203, %210
  %212 = sitofp i32 %211 to float
  %213 = load float, ptr %8, align 4, !tbaa !67
  %214 = fmul nsz float %212, %213
  %215 = call nsz float @llvm.fmuladd.f32(float %201, float %202, float %214)
  %216 = fptoui float %215 to i16
  %217 = load ptr, ptr %5, align 8, !tbaa !125
  %218 = load i32, ptr %10, align 4, !tbaa !47
  %219 = sub nsw i32 %218, 2
  %220 = sext i32 %219 to i64
  %221 = getelementptr inbounds i16, ptr %217, i64 %220
  store i16 %216, ptr %221, align 2, !tbaa !65
  %222 = load ptr, ptr %5, align 8, !tbaa !125
  %223 = load i32, ptr %10, align 4, !tbaa !47
  %224 = add nsw i32 %223, 2
  %225 = sext i32 %224 to i64
  %226 = getelementptr inbounds i16, ptr %222, i64 %225
  %227 = load i16, ptr %226, align 2, !tbaa !65
  %228 = zext i16 %227 to i32
  %229 = sitofp i32 %228 to float
  %230 = load float, ptr %9, align 4, !tbaa !67
  %231 = load i32, ptr %7, align 4, !tbaa !47
  %232 = load ptr, ptr %5, align 8, !tbaa !125
  %233 = load i32, ptr %10, align 4, !tbaa !47
  %234 = add nsw i32 %233, 2
  %235 = sext i32 %234 to i64
  %236 = getelementptr inbounds i16, ptr %232, i64 %235
  %237 = load i16, ptr %236, align 2, !tbaa !65
  %238 = zext i16 %237 to i32
  %239 = sub nsw i32 %231, %238
  %240 = sitofp i32 %239 to float
  %241 = load float, ptr %8, align 4, !tbaa !67
  %242 = fmul nsz float %240, %241
  %243 = call nsz float @llvm.fmuladd.f32(float %229, float %230, float %242)
  %244 = fptoui float %243 to i16
  %245 = load ptr, ptr %5, align 8, !tbaa !125
  %246 = load i32, ptr %10, align 4, !tbaa !47
  %247 = add nsw i32 %246, 2
  %248 = sext i32 %247 to i64
  %249 = getelementptr inbounds i16, ptr %245, i64 %248
  store i16 %244, ptr %249, align 2, !tbaa !65
  %250 = load ptr, ptr %5, align 8, !tbaa !125
  %251 = load i32, ptr %10, align 4, !tbaa !47
  %252 = sub nsw i32 0, %251
  %253 = sub nsw i32 %252, 3
  %254 = sext i32 %253 to i64
  %255 = getelementptr inbounds i16, ptr %250, i64 %254
  %256 = load i16, ptr %255, align 2, !tbaa !65
  %257 = zext i16 %256 to i32
  %258 = sitofp i32 %257 to float
  %259 = load float, ptr %9, align 4, !tbaa !67
  %260 = load i32, ptr %7, align 4, !tbaa !47
  %261 = load ptr, ptr %5, align 8, !tbaa !125
  %262 = load i32, ptr %10, align 4, !tbaa !47
  %263 = sub nsw i32 0, %262
  %264 = sub nsw i32 %263, 3
  %265 = sext i32 %264 to i64
  %266 = getelementptr inbounds i16, ptr %261, i64 %265
  %267 = load i16, ptr %266, align 2, !tbaa !65
  %268 = zext i16 %267 to i32
  %269 = sub nsw i32 %260, %268
  %270 = sitofp i32 %269 to float
  %271 = load float, ptr %8, align 4, !tbaa !67
  %272 = fmul nsz float %270, %271
  %273 = call nsz float @llvm.fmuladd.f32(float %258, float %259, float %272)
  %274 = fptoui float %273 to i16
  %275 = load ptr, ptr %5, align 8, !tbaa !125
  %276 = load i32, ptr %10, align 4, !tbaa !47
  %277 = sub nsw i32 0, %276
  %278 = sub nsw i32 %277, 3
  %279 = sext i32 %278 to i64
  %280 = getelementptr inbounds i16, ptr %275, i64 %279
  store i16 %274, ptr %280, align 2, !tbaa !65
  %281 = load ptr, ptr %5, align 8, !tbaa !125
  %282 = load i32, ptr %10, align 4, !tbaa !47
  %283 = sub nsw i32 0, %282
  %284 = add nsw i32 %283, 3
  %285 = sext i32 %284 to i64
  %286 = getelementptr inbounds i16, ptr %281, i64 %285
  %287 = load i16, ptr %286, align 2, !tbaa !65
  %288 = zext i16 %287 to i32
  %289 = sitofp i32 %288 to float
  %290 = load float, ptr %9, align 4, !tbaa !67
  %291 = load i32, ptr %7, align 4, !tbaa !47
  %292 = load ptr, ptr %5, align 8, !tbaa !125
  %293 = load i32, ptr %10, align 4, !tbaa !47
  %294 = sub nsw i32 0, %293
  %295 = add nsw i32 %294, 3
  %296 = sext i32 %295 to i64
  %297 = getelementptr inbounds i16, ptr %292, i64 %296
  %298 = load i16, ptr %297, align 2, !tbaa !65
  %299 = zext i16 %298 to i32
  %300 = sub nsw i32 %291, %299
  %301 = sitofp i32 %300 to float
  %302 = load float, ptr %8, align 4, !tbaa !67
  %303 = fmul nsz float %301, %302
  %304 = call nsz float @llvm.fmuladd.f32(float %289, float %290, float %303)
  %305 = fptoui float %304 to i16
  %306 = load ptr, ptr %5, align 8, !tbaa !125
  %307 = load i32, ptr %10, align 4, !tbaa !47
  %308 = sub nsw i32 0, %307
  %309 = add nsw i32 %308, 3
  %310 = sext i32 %309 to i64
  %311 = getelementptr inbounds i16, ptr %306, i64 %310
  store i16 %305, ptr %311, align 2, !tbaa !65
  %312 = load ptr, ptr %5, align 8, !tbaa !125
  %313 = load i32, ptr %10, align 4, !tbaa !47
  %314 = sub nsw i32 0, %313
  %315 = sub nsw i32 %314, 2
  %316 = sext i32 %315 to i64
  %317 = getelementptr inbounds i16, ptr %312, i64 %316
  %318 = load i16, ptr %317, align 2, !tbaa !65
  %319 = zext i16 %318 to i32
  %320 = sitofp i32 %319 to float
  %321 = load float, ptr %9, align 4, !tbaa !67
  %322 = load i32, ptr %7, align 4, !tbaa !47
  %323 = load ptr, ptr %5, align 8, !tbaa !125
  %324 = load i32, ptr %10, align 4, !tbaa !47
  %325 = sub nsw i32 0, %324
  %326 = sub nsw i32 %325, 2
  %327 = sext i32 %326 to i64
  %328 = getelementptr inbounds i16, ptr %323, i64 %327
  %329 = load i16, ptr %328, align 2, !tbaa !65
  %330 = zext i16 %329 to i32
  %331 = sub nsw i32 %322, %330
  %332 = sitofp i32 %331 to float
  %333 = load float, ptr %8, align 4, !tbaa !67
  %334 = fmul nsz float %332, %333
  %335 = call nsz float @llvm.fmuladd.f32(float %320, float %321, float %334)
  %336 = fptoui float %335 to i16
  %337 = load ptr, ptr %5, align 8, !tbaa !125
  %338 = load i32, ptr %10, align 4, !tbaa !47
  %339 = sub nsw i32 0, %338
  %340 = sub nsw i32 %339, 2
  %341 = sext i32 %340 to i64
  %342 = getelementptr inbounds i16, ptr %337, i64 %341
  store i16 %336, ptr %342, align 2, !tbaa !65
  %343 = load ptr, ptr %5, align 8, !tbaa !125
  %344 = load i32, ptr %10, align 4, !tbaa !47
  %345 = sub nsw i32 0, %344
  %346 = add nsw i32 %345, 2
  %347 = sext i32 %346 to i64
  %348 = getelementptr inbounds i16, ptr %343, i64 %347
  %349 = load i16, ptr %348, align 2, !tbaa !65
  %350 = zext i16 %349 to i32
  %351 = sitofp i32 %350 to float
  %352 = load float, ptr %9, align 4, !tbaa !67
  %353 = load i32, ptr %7, align 4, !tbaa !47
  %354 = load ptr, ptr %5, align 8, !tbaa !125
  %355 = load i32, ptr %10, align 4, !tbaa !47
  %356 = sub nsw i32 0, %355
  %357 = add nsw i32 %356, 2
  %358 = sext i32 %357 to i64
  %359 = getelementptr inbounds i16, ptr %354, i64 %358
  %360 = load i16, ptr %359, align 2, !tbaa !65
  %361 = zext i16 %360 to i32
  %362 = sub nsw i32 %353, %361
  %363 = sitofp i32 %362 to float
  %364 = load float, ptr %8, align 4, !tbaa !67
  %365 = fmul nsz float %363, %364
  %366 = call nsz float @llvm.fmuladd.f32(float %351, float %352, float %365)
  %367 = fptoui float %366 to i16
  %368 = load ptr, ptr %5, align 8, !tbaa !125
  %369 = load i32, ptr %10, align 4, !tbaa !47
  %370 = sub nsw i32 0, %369
  %371 = add nsw i32 %370, 2
  %372 = sext i32 %371 to i64
  %373 = getelementptr inbounds i16, ptr %368, i64 %372
  store i16 %367, ptr %373, align 2, !tbaa !65
  call void @llvm.lifetime.end.p0(i64 4, ptr %10) #11
  call void @llvm.lifetime.end.p0(i64 4, ptr %9) #11
  ret void
}