; Function Attrs: mustprogress nofree norecurse nosync nounwind willreturn memory(argmem: readwrite) uwtable
define internal fastcc void @draw_idots16(ptr noundef captures(none) %0, i32 noundef range(i32 -1073741824, 1073741824) %1, i32 noundef range(i32 -2147483648, 2147483647) %2, float noundef %3) unnamed_addr #10 {
  %5 = fsub nsz float 1.000000e+00, %3
  %6 = shl nsw i32 %1, 1
  %7 = sext i32 %6 to i64
  %8 = getelementptr i16, ptr %0, i64 %7
  %9 = getelementptr i8, ptr %8, i64 -6
  %10 = load i16, ptr %9, align 2, !tbaa !58
  %11 = zext i16 %10 to i32
  %12 = uitofp i16 %10 to float
  %13 = sub nsw i32 %2, %11
  %14 = sitofp i32 %13 to float
  %15 = fmul nsz float %3, %14
  %16 = tail call nsz float @llvm.fmuladd.f32(float %12, float %5, float %15)
  %17 = fptoui float %16 to i16
  store i16 %17, ptr %9, align 2, !tbaa !58
  %18 = getelementptr i8, ptr %8, i64 6
  %19 = load i16, ptr %18, align 2, !tbaa !58
  %20 = zext i16 %19 to i32
  %21 = uitofp i16 %19 to float
  %22 = sub nsw i32 %2, %20
  %23 = sitofp i32 %22 to float
  %24 = fmul nsz float %3, %23
  %25 = tail call nsz float @llvm.fmuladd.f32(float %21, float %5, float %24)
  %26 = fptoui float %25 to i16
  store i16 %26, ptr %18, align 2, !tbaa !58
  %27 = sub i32 -3, %6
  %28 = sext i32 %27 to i64
  %29 = getelementptr inbounds i16, ptr %0, i64 %28
  %30 = load i16, ptr %29, align 2, !tbaa !58
  %31 = zext i16 %30 to i32
  %32 = uitofp i16 %30 to float
  %33 = sub nsw i32 %2, %31
  %34 = sitofp i32 %33 to float
  %35 = fmul nsz float %3, %34
  %36 = tail call nsz float @llvm.fmuladd.f32(float %32, float %5, float %35)
  %37 = fptoui float %36 to i16
  store i16 %37, ptr %29, align 2, !tbaa !58
  %38 = sub i32 3, %6
  %39 = sext i32 %38 to i64
  %40 = getelementptr inbounds i16, ptr %0, i64 %39
  %41 = load i16, ptr %40, align 2, !tbaa !58
  %42 = zext i16 %41 to i32
  %43 = uitofp i16 %41 to float
  %44 = sub nsw i32 %2, %42
  %45 = sitofp i32 %44 to float
  %46 = fmul nsz float %3, %45
  %47 = tail call nsz float @llvm.fmuladd.f32(float %43, float %5, float %46)
  %48 = fptoui float %47 to i16
  store i16 %48, ptr %40, align 2, !tbaa !58
  %49 = mul nsw i32 %1, 3
  %50 = sext i32 %49 to i64
  %51 = getelementptr i16, ptr %0, i64 %50
  %52 = getelementptr i8, ptr %51, i64 -6
  %53 = load i16, ptr %52, align 2, !tbaa !58
  %54 = zext i16 %53 to i32
  %55 = uitofp i16 %53 to float
  %56 = sub nsw i32 %2, %54
  %57 = sitofp i32 %56 to float
  %58 = fmul nsz float %3, %57
  %59 = tail call nsz float @llvm.fmuladd.f32(float %55, float %5, float %58)
  %60 = fptoui float %59 to i16
  store i16 %60, ptr %52, align 2, !tbaa !58
  %61 = getelementptr i8, ptr %51, i64 6
  %62 = load i16, ptr %61, align 2, !tbaa !58
  %63 = zext i16 %62 to i32
  %64 = uitofp i16 %62 to float
  %65 = sub nsw i32 %2, %63
  %66 = sitofp i32 %65 to float
  %67 = fmul nsz float %3, %66
  %68 = tail call nsz float @llvm.fmuladd.f32(float %64, float %5, float %67)
  %69 = fptoui float %68 to i16
  store i16 %69, ptr %61, align 2, !tbaa !58
  %70 = getelementptr i8, ptr %51, i64 -4
  %71 = load i16, ptr %70, align 2, !tbaa !58
  %72 = zext i16 %71 to i32
  %73 = uitofp i16 %71 to float
  %74 = sub nsw i32 %2, %72
  %75 = sitofp i32 %74 to float
  %76 = fmul nsz float %3, %75
  %77 = tail call nsz float @llvm.fmuladd.f32(float %73, float %5, float %76)
  %78 = fptoui float %77 to i16
  store i16 %78, ptr %70, align 2, !tbaa !58
  %79 = getelementptr i8, ptr %51, i64 4
  %80 = load i16, ptr %79, align 2, !tbaa !58
  %81 = zext i16 %80 to i32
  %82 = uitofp i16 %80 to float
  %83 = sub nsw i32 %2, %81
  %84 = sitofp i32 %83 to float
  %85 = fmul nsz float %3, %84
  %86 = tail call nsz float @llvm.fmuladd.f32(float %82, float %5, float %85)
  %87 = fptoui float %86 to i16
  store i16 %87, ptr %79, align 2, !tbaa !58
  %88 = sub i32 -3, %49
  %89 = sext i32 %88 to i64
  %90 = getelementptr inbounds i16, ptr %0, i64 %89
  %91 = load i16, ptr %90, align 2, !tbaa !58
  %92 = zext i16 %91 to i32
  %93 = uitofp i16 %91 to float
  %94 = sub nsw i32 %2, %92
  %95 = sitofp i32 %94 to float
  %96 = fmul nsz float %3, %95
  %97 = tail call nsz float @llvm.fmuladd.f32(float %93, float %5, float %96)
  %98 = fptoui float %97 to i16
  store i16 %98, ptr %90, align 2, !tbaa !58
  %99 = sub i32 3, %49
  %100 = sext i32 %99 to i64
  %101 = getelementptr inbounds i16, ptr %0, i64 %100
  %102 = load i16, ptr %101, align 2, !tbaa !58
  %103 = zext i16 %102 to i32
  %104 = uitofp i16 %102 to float
  %105 = sub nsw i32 %2, %103
  %106 = sitofp i32 %105 to float
  %107 = fmul nsz float %3, %106
  %108 = tail call nsz float @llvm.fmuladd.f32(float %104, float %5, float %107)
  %109 = fptoui float %108 to i16
  store i16 %109, ptr %101, align 2, !tbaa !58
  %110 = sub i32 -2, %49
  %111 = sext i32 %110 to i64
  %112 = getelementptr inbounds i16, ptr %0, i64 %111
  %113 = load i16, ptr %112, align 2, !tbaa !58
  %114 = zext i16 %113 to i32
  %115 = uitofp i16 %113 to float
  %116 = sub nsw i32 %2, %114
  %117 = sitofp i32 %116 to float
  %118 = fmul nsz float %3, %117
  %119 = tail call nsz float @llvm.fmuladd.f32(float %115, float %5, float %118)
  %120 = fptoui float %119 to i16
  store i16 %120, ptr %112, align 2, !tbaa !58
  %121 = sub i32 2, %49
  %122 = sext i32 %121 to i64
  %123 = getelementptr inbounds i16, ptr %0, i64 %122
  %124 = load i16, ptr %123, align 2, !tbaa !58
  %125 = zext i16 %124 to i32
  %126 = uitofp i16 %124 to float
  %127 = sub nsw i32 %2, %125
  %128 = sitofp i32 %127 to float
  %129 = fmul nsz float %3, %128
  %130 = tail call nsz float @llvm.fmuladd.f32(float %126, float %5, float %129)
  %131 = fptoui float %130 to i16
  store i16 %131, ptr %123, align 2, !tbaa !58
  ret void
}